target datalayout = "e-m:e-p270:32:32-p271:32:32-p272:64:64-i64:64-i128:128-f80:128-n8:16:32:64-S128"
target triple = "x86_64-pc-linux-gnu"

; Function Attrs: nounwind uwtable
define internal double @m_sinpi(double noundef %0) #0 {
  %2 = alloca double, align 8
  %3 = alloca double, align 8
  %4 = alloca double, align 8
  %5 = alloca i32, align 4
  store double %0, ptr %2, align 8, !tbaa !13
  call void @llvm.lifetime.start.p0(i64 8, ptr %3) #10
  call void @llvm.lifetime.start.p0(i64 8, ptr %4) #10
  call void @llvm.lifetime.start.p0(i64 4, ptr %5) #10
  %6 = load double, ptr %2, align 8, !tbaa !13
  %7 = call double @llvm.fabs.f64(double %6)
  %8 = call double @fmod(double noundef %7, double noundef 2.000000e+00) #10, !tbaa !17
  store double %8, ptr %3, align 8, !tbaa !13
  %9 = load double, ptr %3, align 8, !tbaa !13
  %10 = fmul double 2.000000e+00, %9
  %11 = call double @llvm.round.f64(double %10)
  %12 = fptosi double %11 to i32
  store i32 %12, ptr %5, align 4, !tbaa !17
  %13 = load i32, ptr %5, align 4, !tbaa !17
  switch i32 %13, label %39 [
    i32 0, label %14
    i32 1, label %18
    i32 2, label %23
    i32 3, label %28
    i32 4, label %34
  ]

14:                                               ; preds = %1
  %15 = load double, ptr %3, align 8, !tbaa !13
  %16 = fmul double 0x400921FB54442D18, %15
  %17 = call double @sin(double noundef %16) #10, !tbaa !17
  store double %17, ptr %4, align 8, !tbaa !13
  br label %40

18:                                               ; preds = %1
  %19 = load double, ptr %3, align 8, !tbaa !13
  %20 = fsub double %19, 5.000000e-01
  %21 = fmul double 0x400921FB54442D18, %20
  %22 = call double @cos(double noundef %21) #10, !tbaa !17
  store double %22, ptr %4, align 8, !tbaa !13
  br label %40

23:                                               ; preds = %1
  %24 = load double, ptr %3, align 8, !tbaa !13
  %25 = fsub double 1.000000e+00, %24
  %26 = fmul double 0x400921FB54442D18, %25
  %27 = call double @sin(double noundef %26) #10, !tbaa !17
  store double %27, ptr %4, align 8, !tbaa !13
  br label %40

28:                                               ; preds = %1
  %29 = load double, ptr %3, align 8, !tbaa !13
  %30 = fsub double %29, 1.500000e+00
  %31 = fmul double 0x400921FB54442D18, %30
  %32 = call double @cos(double noundef %31) #10, !tbaa !17
  %33 = fneg double %32
  store double %33, ptr %4, align 8, !tbaa !13
  br label %40

34:                                               ; preds = %1
  %35 = load double, ptr %3, align 8, !tbaa !13
  %36 = fsub double %35, 2.000000e+00
  %37 = fmul double 0x400921FB54442D18, %36
  %38 = call double @sin(double noundef %37) #10, !tbaa !17
  store double %38, ptr %4, align 8, !tbaa !13
  br label %40

39:                                               ; preds = %1
  unreachable

40:                                               ; preds = %34, %28, %23, %18, %14
  %41 = load double, ptr %2, align 8, !tbaa !13
  %42 = call double @llvm.copysign.f64(double 1.000000e+00, double %41)
  %43 = load double, ptr %4, align 8, !tbaa !13
  %44 = fmul double %42, %43
  call void @llvm.lifetime.end.p0(i64 4, ptr %5) #10
  call void @llvm.lifetime.end.p0(i64 8, ptr %4) #10
  call void @llvm.lifetime.end.p0(i64 8, ptr %3) #10
  ret double %44
}