; Function Attrs: mustprogress nofree nounwind willreturn memory(write) uwtable
define internal fastcc double @m_sinpi(double noundef %0) unnamed_addr #12 {
  %2 = tail call double @llvm.fabs.f64(double %0)
  %3 = tail call double @fmod(double noundef %2, double noundef 2.000000e+00) #16, !tbaa !14
  %4 = fmul double %3, 2.000000e+00
  %5 = tail call double @llvm.round.f64(double %4)
  %6 = fptosi double %5 to i32
  switch i32 %6, label %27 [
    i32 0, label %7
    i32 1, label %10
    i32 2, label %14
    i32 3, label %18
    i32 4, label %23
  ]

7:                                                ; preds = %1
  %8 = fmul double %3, 0x400921FB54442D18
  %9 = tail call double @sin(double noundef %8) #16, !tbaa !14
  br label %28

10:                                               ; preds = %1
  %11 = fadd double %3, -5.000000e-01
  %12 = fmul double %11, 0x400921FB54442D18
  %13 = tail call double @cos(double noundef %12) #16, !tbaa !14
  br label %28

14:                                               ; preds = %1
  %15 = fsub double 1.000000e+00, %3
  %16 = fmul double %15, 0x400921FB54442D18
  %17 = tail call double @sin(double noundef %16) #16, !tbaa !14
  br label %28

18:                                               ; preds = %1
  %19 = fadd double %3, -1.500000e+00
  %20 = fmul double %19, 0x400921FB54442D18
  %21 = tail call double @cos(double noundef %20) #16, !tbaa !14
  %22 = fneg double %21
  br label %28

23:                                               ; preds = %1
  %24 = fadd double %3, -2.000000e+00
  %25 = fmul double %24, 0x400921FB54442D18
  %26 = tail call double @sin(double noundef %25) #16, !tbaa !14
  br label %28

27:                                               ; preds = %1
  unreachable

28:                                               ; preds = %23, %18, %14, %10, %7
  %.0 = phi double [ %26, %23 ], [ %22, %18 ], [ %17, %14 ], [ %13, %10 ], [ %9, %7 ]
  %29 = tail call double @llvm.copysign.f64(double 1.000000e+00, double %0)
  %30 = fmul double %29, %.0
  ret double %30
}